target datalayout = "e-m:e-p270:32:32-p271:32:32-p272:64:64-i64:64-i128:128-f80:128-n8:16:32:64-S128"
target triple = "x86_64-pc-linux-gnu"

%struct.engine_st = type { ptr, ptr, ptr, ptr, ptr, ptr, ptr, ptr, ptr, ptr, ptr, ptr, ptr, ptr, ptr, ptr, ptr, ptr, ptr, i32, %struct.CRYPTO_REF_COUNT, i32, %struct.crypto_ex_data_st, ptr, ptr, ptr, ptr, ptr }
%struct.CRYPTO_REF_COUNT = type { i32 }
%struct.crypto_ex_data_st = type { ptr, ptr }

; Function Attrs: nounwind uwtable
define void @engine_set_all_null(ptr noundef %0) #0 {
  %2 = alloca ptr, align 8
  store ptr %0, ptr %2, align 8, !tbaa !9
  %3 = load ptr, ptr %2, align 8, !tbaa !9
  %4 = getelementptr inbounds nuw %struct.engine_st, ptr %3, i32 0, i32 0
  store ptr null, ptr %4, align 8, !tbaa !13
  %5 = load ptr, ptr %2, align 8, !tbaa !9
  %6 = getelementptr inbounds nuw %struct.engine_st, ptr %5, i32 0, i32 1
  store ptr null, ptr %6, align 8, !tbaa !25
  %7 = load ptr, ptr %2, align 8, !tbaa !9
  %8 = getelementptr inbounds nuw %struct.engine_st, ptr %7, i32 0, i32 2
  store ptr null, ptr %8, align 8, !tbaa !26
  %9 = load ptr, ptr %2, align 8, !tbaa !9
  %10 = getelementptr inbounds nuw %struct.engine_st, ptr %9, i32 0, i32 3
  store ptr null, ptr %10, align 8, !tbaa !27
  %11 = load ptr, ptr %2, align 8, !tbaa !9
  %12 = getelementptr inbounds nuw %struct.engine_st, ptr %11, i32 0, i32 4
  store ptr null, ptr %12, align 8, !tbaa !28
  %13 = load ptr, ptr %2, align 8, !tbaa !9
  %14 = getelementptr inbounds nuw %struct.engine_st, ptr %13, i32 0, i32 6
  store ptr null, ptr %14, align 8, !tbaa !29
  %15 = load ptr, ptr %2, align 8, !tbaa !9
  %16 = getelementptr inbounds nuw %struct.engine_st, ptr %15, i32 0, i32 7
  store ptr null, ptr %16, align 8, !tbaa !30
  %17 = load ptr, ptr %2, align 8, !tbaa !9
  %18 = getelementptr inbounds nuw %struct.engine_st, ptr %17, i32 0, i32 8
  store ptr null, ptr %18, align 8, !tbaa !31
  %19 = load ptr, ptr %2, align 8, !tbaa !9
  %20 = getelementptr inbounds nuw %struct.engine_st, ptr %19, i32 0, i32 11
  store ptr null, ptr %20, align 8, !tbaa !32
  %21 = load ptr, ptr %2, align 8, !tbaa !9
  %22 = getelementptr inbounds nuw %struct.engine_st, ptr %21, i32 0, i32 12
  store ptr null, ptr %22, align 8, !tbaa !33
  %23 = load ptr, ptr %2, align 8, !tbaa !9
  %24 = getelementptr inbounds nuw %struct.engine_st, ptr %23, i32 0, i32 13
  store ptr null, ptr %24, align 8, !tbaa !34
  %25 = load ptr, ptr %2, align 8, !tbaa !9
  %26 = getelementptr inbounds nuw %struct.engine_st, ptr %25, i32 0, i32 14
  store ptr null, ptr %26, align 8, !tbaa !35
  %27 = load ptr, ptr %2, align 8, !tbaa !9
  %28 = getelementptr inbounds nuw %struct.engine_st, ptr %27, i32 0, i32 15
  store ptr null, ptr %28, align 8, !tbaa !36
  %29 = load ptr, ptr %2, align 8, !tbaa !9
  %30 = getelementptr inbounds nuw %struct.engine_st, ptr %29, i32 0, i32 16
  store ptr null, ptr %30, align 8, !tbaa !37
  %31 = load ptr, ptr %2, align 8, !tbaa !9
  %32 = getelementptr inbounds nuw %struct.engine_st, ptr %31, i32 0, i32 18
  store ptr null, ptr %32, align 8, !tbaa !38
  %33 = load ptr, ptr %2, align 8, !tbaa !9
  %34 = getelementptr inbounds nuw %struct.engine_st, ptr %33, i32 0, i32 19
  store i32 0, ptr %34, align 8, !tbaa !39
  %35 = load ptr, ptr %2, align 8, !tbaa !9
  %36 = getelementptr inbounds nuw %struct.engine_st, ptr %35, i32 0, i32 27
  store ptr null, ptr %36, align 8, !tbaa !40
  ret void
}