; Function Attrs: mustprogress nofree norecurse nosync nounwind willreturn memory(argmem: write) uwtable
define void @engine_set_all_null(ptr noundef writeonly captures(none) initializes((0, 40), (48, 72), (88, 136), (144, 156), (216, 224)) %0) local_unnamed_addr #2 {
  %2 = getelementptr inbounds nuw i8, ptr %0, i64 48
  %3 = getelementptr inbounds nuw i8, ptr %0, i64 88
  %4 = getelementptr inbounds nuw i8, ptr %0, i64 144
  store ptr null, ptr %4, align 8, !tbaa !11
  %5 = getelementptr inbounds nuw i8, ptr %0, i64 152
  store i32 0, ptr %5, align 8, !tbaa !24
  %6 = getelementptr inbounds nuw i8, ptr %0, i64 216
  store ptr null, ptr %6, align 8, !tbaa !25
  tail call void @llvm.memset.p0.i64(ptr noundef nonnull align 8 dereferenceable(40) %0, i8 0, i64 40, i1 false)
  tail call void @llvm.memset.p0.i64(ptr noundef nonnull align 8 dereferenceable(24) %2, i8 0, i64 24, i1 false)
  tail call void @llvm.memset.p0.i64(ptr noundef nonnull align 8 dereferenceable(48) %3, i8 0, i64 48, i1 false)
  ret void
}